SF:/home/coding/ARMOR/src/parsers/config.rs
FN:49,_RNvMNtNtCsiXKQ3ZuUVOr_5armor7parsers6configNtB2_10ParserMode10is_lenient
FN:44,_RNvMNtNtCsiXKQ3ZuUVOr_5armor7parsers6configNtB2_10ParserMode9is_strict
FN:149,_RNvMs1_NtNtCsiXKQ3ZuUVOr_5armor7parsers6configNtB5_15TypeConstructor9construct
FN:229,_RNvMs3_NtNtCsiXKQ3ZuUVOr_5armor7parsers6configNtB5_14ValidationHook10applies_to
FN:255,_RNvMs3_NtNtCsiXKQ3ZuUVOr_5armor7parsers6configNtB5_14ValidationHook8validate
FN:445,_RNvMs6_NtNtCsiXKQ3ZuUVOr_5armor7parsers6configNtB5_12ParserConfig10is_lenient
FN:505,_RNvMs6_NtNtCsiXKQ3ZuUVOr_5armor7parsers6configNtB5_12ParserConfig15get_constructor
FN:518,_RNvMs6_NtNtCsiXKQ3ZuUVOr_5armor7parsers6configNtB5_12ParserConfig15get_validations
FN:492,_RNvMs6_NtNtCsiXKQ3ZuUVOr_5armor7parsers6configNtB5_12ParserConfig19register_validation
FN:398,_RNvMs6_NtNtCsiXKQ3ZuUVOr_5armor7parsers6configNtB5_12ParserConfig6strict
FN:371,_RNvMs6_NtNtCsiXKQ3ZuUVOr_5armor7parsers6configNtB5_12ParserConfig7builder
FN:430,_RNvMs6_NtNtCsiXKQ3ZuUVOr_5armor7parsers6configNtB5_12ParserConfig7lenient
FN:440,_RNvMs6_NtNtCsiXKQ3ZuUVOr_5armor7parsers6configNtB5_12ParserConfig9is_strict
FN:586,_RNvMs7_NtNtCsiXKQ3ZuUVOr_5armor7parsers6configNtB5_19ParserConfigBuilder12strict_types
FN:604,_RNvMs7_NtNtCsiXKQ3ZuUVOr_5armor7parsers6configNtB5_19ParserConfigBuilder13emit_warnings
FN:574,_RNvMs7_NtNtCsiXKQ3ZuUVOr_5armor7parsers6configNtB5_19ParserConfigBuilder15preserve_quotes
FN:598,_RNvMs7_NtNtCsiXKQ3ZuUVOr_5armor7parsers6configNtB5_19ParserConfigBuilder15with_validation
FN:562,_RNvMs7_NtNtCsiXKQ3ZuUVOr_5armor7parsers6configNtB5_19ParserConfigBuilder16allow_duplicates
FN:568,_RNvMs7_NtNtCsiXKQ3ZuUVOr_5armor7parsers6configNtB5_19ParserConfigBuilder17preserve_comments
FN:610,_RNvMs7_NtNtCsiXKQ3ZuUVOr_5armor7parsers6configNtB5_19ParserConfigBuilder18warnings_as_errors
FN:549,_RNvMs7_NtNtCsiXKQ3ZuUVOr_5armor7parsers6configNtB5_19ParserConfigBuilder3new
FN:556,_RNvMs7_NtNtCsiXKQ3ZuUVOr_5armor7parsers6configNtB5_19ParserConfigBuilder4mode
FN:616,_RNvMs7_NtNtCsiXKQ3ZuUVOr_5armor7parsers6configNtB5_19ParserConfigBuilder5build
FN:580,_RNvMs7_NtNtCsiXKQ3ZuUVOr_5armor7parsers6configNtB5_19ParserConfigBuilder9max_depth
FN:64,_RNvXs0_NtNtCsiXKQ3ZuUVOr_5armor7parsers6configNtB5_10ParserModeNtNtCs3BFokC4QLxY_4core7default7Default7default
FN:155,_RNvXs2_NtNtCsiXKQ3ZuUVOr_5armor7parsers6configNtB5_15TypeConstructorNtNtCs3BFokC4QLxY_4core3fmt5Debug3fmt
FN:261,_RNvXs4_NtNtCsiXKQ3ZuUVOr_5armor7parsers6configNtB5_14ValidationHookNtNtCs3BFokC4QLxY_4core3fmt5Debug3fmt
FN:343,_RNvXs5_NtNtCsiXKQ3ZuUVOr_5armor7parsers6configNtB5_12ParserConfigNtNtCs3BFokC4QLxY_4core7default7Default7default
FN:55,_RNvXs_NtNtCsiXKQ3ZuUVOr_5armor7parsers6configNtB4_10ParserModeNtNtCs3BFokC4QLxY_4core3fmt7Display3fmt
FN:129,_RINvMs1_NtNtCsiXKQ3ZuUVOr_5armor7parsers6configNtB6_15TypeConstructor3newpEBa_
FN:213,_RINvMs3_NtNtCsiXKQ3ZuUVOr_5armor7parsers6configNtB6_14ValidationHook3newpEBa_
FN:469,_RINvMs6_NtNtCsiXKQ3ZuUVOr_5armor7parsers6configNtB6_12ParserConfig20register_constructorpEBa_
FN:592,_RINvMs7_NtNtCsiXKQ3ZuUVOr_5armor7parsers6configNtB6_19ParserConfigBuilder16with_constructorpEBa_
FN:521,_RNCNvMs6_NtNtCsiXKQ3ZuUVOr_5armor7parsers6configNtB7_12ParserConfig15get_validations0Bb_
FNDA:0,_RNvMNtNtCsiXKQ3ZuUVOr_5armor7parsers6configNtB2_10ParserMode10is_lenient
FNDA:0,_RNvMNtNtCsiXKQ3ZuUVOr_5armor7parsers6configNtB2_10ParserMode9is_strict
FNDA:0,_RNvMs1_NtNtCsiXKQ3ZuUVOr_5armor7parsers6configNtB5_15TypeConstructor9construct
FNDA:0,_RNvMs3_NtNtCsiXKQ3ZuUVOr_5armor7parsers6configNtB5_14ValidationHook10applies_to
FNDA:0,_RNvMs3_NtNtCsiXKQ3ZuUVOr_5armor7parsers6configNtB5_14ValidationHook8validate
FNDA:0,_RNvMs6_NtNtCsiXKQ3ZuUVOr_5armor7parsers6configNtB5_12ParserConfig10is_lenient
FNDA:0,_RNvMs6_NtNtCsiXKQ3ZuUVOr_5armor7parsers6configNtB5_12ParserConfig15get_constructor
FNDA:0,_RNvMs6_NtNtCsiXKQ3ZuUVOr_5armor7parsers6configNtB5_12ParserConfig15get_validations
FNDA:0,_RNvMs6_NtNtCsiXKQ3ZuUVOr_5armor7parsers6configNtB5_12ParserConfig19register_validation
FNDA:0,_RNvMs6_NtNtCsiXKQ3ZuUVOr_5armor7parsers6configNtB5_12ParserConfig6strict
FNDA:0,_RNvMs6_NtNtCsiXKQ3ZuUVOr_5armor7parsers6configNtB5_12ParserConfig7builder
FNDA:0,_RNvMs6_NtNtCsiXKQ3ZuUVOr_5armor7parsers6configNtB5_12ParserConfig7lenient
FNDA:0,_RNvMs6_NtNtCsiXKQ3ZuUVOr_5armor7parsers6configNtB5_12ParserConfig9is_strict
FNDA:0,_RNvMs7_NtNtCsiXKQ3ZuUVOr_5armor7parsers6configNtB5_19ParserConfigBuilder12strict_types
FNDA:0,_RNvMs7_NtNtCsiXKQ3ZuUVOr_5armor7parsers6configNtB5_19ParserConfigBuilder13emit_warnings
FNDA:0,_RNvMs7_NtNtCsiXKQ3ZuUVOr_5armor7parsers6configNtB5_19ParserConfigBuilder15preserve_quotes
FNDA:0,_RNvMs7_NtNtCsiXKQ3ZuUVOr_5armor7parsers6configNtB5_19ParserConfigBuilder15with_validation
FNDA:0,_RNvMs7_NtNtCsiXKQ3ZuUVOr_5armor7parsers6configNtB5_19ParserConfigBuilder16allow_duplicates
FNDA:0,_RNvMs7_NtNtCsiXKQ3ZuUVOr_5armor7parsers6configNtB5_19ParserConfigBuilder17preserve_comments
FNDA:0,_RNvMs7_NtNtCsiXKQ3ZuUVOr_5armor7parsers6configNtB5_19ParserConfigBuilder18warnings_as_errors
FNDA:0,_RNvMs7_NtNtCsiXKQ3ZuUVOr_5armor7parsers6configNtB5_19ParserConfigBuilder3new
FNDA:0,_RNvMs7_NtNtCsiXKQ3ZuUVOr_5armor7parsers6configNtB5_19ParserConfigBuilder4mode
FNDA:0,_RNvMs7_NtNtCsiXKQ3ZuUVOr_5armor7parsers6configNtB5_19ParserConfigBuilder5build
FNDA:0,_RNvMs7_NtNtCsiXKQ3ZuUVOr_5armor7parsers6configNtB5_19ParserConfigBuilder9max_depth
FNDA:0,_RNvXs0_NtNtCsiXKQ3ZuUVOr_5armor7parsers6configNtB5_10ParserModeNtNtCs3BFokC4QLxY_4core7default7Default7default
FNDA:0,_RNvXs2_NtNtCsiXKQ3ZuUVOr_5armor7parsers6configNtB5_15TypeConstructorNtNtCs3BFokC4QLxY_4core3fmt5Debug3fmt
FNDA:0,_RNvXs4_NtNtCsiXKQ3ZuUVOr_5armor7parsers6configNtB5_14ValidationHookNtNtCs3BFokC4QLxY_4core3fmt5Debug3fmt
FNDA:0,_RNvXs5_NtNtCsiXKQ3ZuUVOr_5armor7parsers6configNtB5_12ParserConfigNtNtCs3BFokC4QLxY_4core7default7Default7default
FNDA:0,_RNvXs_NtNtCsiXKQ3ZuUVOr_5armor7parsers6configNtB4_10ParserModeNtNtCs3BFokC4QLxY_4core3fmt7Display3fmt
FNDA:0,_RINvMs1_NtNtCsiXKQ3ZuUVOr_5armor7parsers6configNtB6_15TypeConstructor3newpEBa_
FNDA:0,_RINvMs3_NtNtCsiXKQ3ZuUVOr_5armor7parsers6configNtB6_14ValidationHook3newpEBa_
FNDA:0,_RINvMs6_NtNtCsiXKQ3ZuUVOr_5armor7parsers6configNtB6_12ParserConfig20register_constructorpEBa_
FNDA:0,_RINvMs7_NtNtCsiXKQ3ZuUVOr_5armor7parsers6configNtB6_19ParserConfigBuilder16with_constructorpEBa_
FNDA:0,_RNCNvMs6_NtNtCsiXKQ3ZuUVOr_5armor7parsers6configNtB7_12ParserConfig15get_validations0Bb_
FNF:34
FNH:0
DA:44,0
DA:45,0
DA:46,0
DA:49,0
DA:50,0
DA:51,0
DA:55,0
DA:56,0
DA:57,0
DA:58,0
DA:60,0
DA:64,0
DA:66,0
DA:67,0
DA:129,0
DA:130,0
DA:131,0
DA:132,0
DA:133,0
DA:134,0
DA:149,0
DA:150,0
DA:151,0
DA:155,0
DA:156,0
DA:157,0
DA:158,0
DA:159,0
DA:160,0
DA:213,0
DA:214,0
DA:215,0
DA:216,0
DA:217,0
DA:218,0
DA:229,0
DA:230,0
DA:231,0
DA:232,0
DA:234,0
DA:235,0
DA:236,0
DA:237,0
DA:239,0
DA:240,0
DA:255,0
DA:256,0
DA:257,0
DA:261,0
DA:262,0
DA:263,0
DA:264,0
DA:265,0
DA:266,0
DA:343,0
DA:344,0
DA:345,0
DA:346,0
DA:347,0
DA:348,0
DA:349,0
DA:350,0
DA:351,0
DA:352,0
DA:353,0
DA:354,0
DA:355,0
DA:356,0
DA:371,0
DA:372,0
DA:373,0
DA:398,0
DA:399,0
DA:400,0
DA:401,0
DA:402,0
DA:403,0
DA:404,0
DA:405,0
DA:430,0
DA:431,0
DA:432,0
DA:433,0
DA:434,0
DA:435,0
DA:436,0
DA:437,0
DA:440,0
DA:441,0
DA:442,0
DA:445,0
DA:446,0
DA:447,0
DA:469,0
DA:470,0
DA:471,0
DA:492,0
DA:493,0
DA:494,0
DA:505,0
DA:506,0
DA:507,0
DA:518,0
DA:519,0
DA:520,0
DA:521,0
DA:522,0
DA:549,0
DA:550,0
DA:551,0
DA:552,0
DA:553,0
DA:556,0
DA:557,0
DA:558,0
DA:559,0
DA:562,0
DA:563,0
DA:564,0
DA:565,0
DA:568,0
DA:569,0
DA:570,0
DA:571,0
DA:574,0
DA:575,0
DA:576,0
DA:577,0
DA:580,0
DA:581,0
DA:582,0
DA:583,0
DA:586,0
DA:587,0
DA:588,0
DA:589,0
DA:592,0
DA:593,0
DA:594,0
DA:595,0
DA:598,0
DA:599,0
DA:600,0
DA:601,0
DA:604,0
DA:605,0
DA:606,0
DA:607,0
DA:610,0
DA:611,0
DA:612,0
DA:613,0
DA:616,0
DA:617,0
DA:618,0
BRF:0
BRH:0
LF:156
LH:0
end_of_record
SF:/home/coding/ARMOR/src/parsers/traits.rs
FN:500,_RNvMNtNtCsiXKQ3ZuUVOr_5armor7parsers6traitsNtB2_12ParseOptions14with_delimiter
FN:494,_RNvMNtNtCsiXKQ3ZuUVOr_5armor7parsers6traitsNtB2_12ParseOptions14with_max_depth
FN:476,_RNvMNtNtCsiXKQ3ZuUVOr_5armor7parsers6traitsNtB2_12ParseOptions16with_strict_mode
FN:488,_RNvMNtNtCsiXKQ3ZuUVOr_5armor7parsers6traitsNtB2_12ParseOptions21with_allow_duplicates
FN:482,_RNvMNtNtCsiXKQ3ZuUVOr_5armor7parsers6traitsNtB2_12ParseOptions22with_preserve_comments
FN:429,_RNvMNtNtCsiXKQ3ZuUVOr_5armor7parsers6traitsNtB2_12ParseOptions3new
FN:446,_RNvMNtNtCsiXKQ3ZuUVOr_5armor7parsers6traitsNtB2_12ParseOptions6strict
FN:467,_RNvMNtNtCsiXKQ3ZuUVOr_5armor7parsers6traitsNtB2_12ParseOptions7lenient
FN:674,_RNvMs1_NtNtCsiXKQ3ZuUVOr_5armor7parsers6traitsNtB5_10ParseError13is_validation
FN:680,_RNvMs1_NtNtCsiXKQ3ZuUVOr_5armor7parsers6traitsNtB5_10ParseError16is_type_mismatch
FN:668,_RNvMs1_NtNtCsiXKQ3ZuUVOr_5armor7parsers6traitsNtB5_10ParseError5is_io
FN:686,_RNvMs1_NtNtCsiXKQ3ZuUVOr_5armor7parsers6traitsNtB5_10ParseError7summary
FN:662,_RNvMs1_NtNtCsiXKQ3ZuUVOr_5armor7parsers6traitsNtB5_10ParseError9is_syntax
FN:584,_RNvMs_NtNtCsiXKQ3ZuUVOr_5armor7parsers6traitsNtB4_13ParseMetadata10extensions
FN:540,_RNvMs_NtNtCsiXKQ3ZuUVOr_5armor7parsers6traitsNtB4_13ParseMetadata14with_streaming
FN:546,_RNvMs_NtNtCsiXKQ3ZuUVOr_5armor7parsers6traitsNtB4_13ParseMetadata16with_incremental
FN:574,_RNvMs_NtNtCsiXKQ3ZuUVOr_5armor7parsers6traitsNtB4_13ParseMetadata18supports_streaming
FN:579,_RNvMs_NtNtCsiXKQ3ZuUVOr_5armor7parsers6traitsNtB4_13ParseMetadata20supports_incremental
FN:564,_RNvMs_NtNtCsiXKQ3ZuUVOr_5armor7parsers6traitsNtB4_13ParseMetadata4name
FN:569,_RNvMs_NtNtCsiXKQ3ZuUVOr_5armor7parsers6traitsNtB4_13ParseMetadata6format
FN:589,_RNvMs_NtNtCsiXKQ3ZuUVOr_5armor7parsers6traitsNtB4_13ParseMetadata7version
FN:595,_RNvXs0_NtNtCsiXKQ3ZuUVOr_5armor7parsers6traitsNtB5_13ParseMetadataNtNtCs3BFokC4QLxY_4core7default7Default7default
FN:701,_RNvXs2_NtNtCsiXKQ3ZuUVOr_5armor7parsers6traitsNtB5_10ParseErrorNtNtCs3BFokC4QLxY_4core3fmt7Display3fmt
FN:709,_RNvXs4_NtNtCsiXKQ3ZuUVOr_5armor7parsers6traitsNtB5_10ParseErrorINtNtCs3BFokC4QLxY_4core7convert4FromNtNtNtB7_4yaml5error10ParseErrorE4from
FN:715,_RNvXs5_NtNtCsiXKQ3ZuUVOr_5armor7parsers6traitsNtB5_10ParseErrorINtNtCs3BFokC4QLxY_4core7convert4FromNtNtNtCs3JBboNF8E1m_3std2io5error5ErrorE4from
FN:643,_RINvMs1_NtNtCsiXKQ3ZuUVOr_5armor7parsers6traitsNtB6_10ParseError10validationpEBa_
FN:648,_RINvMs1_NtNtCsiXKQ3ZuUVOr_5armor7parsers6traitsNtB6_10ParseError13type_mismatchpppEBa_
FN:638,_RINvMs1_NtNtCsiXKQ3ZuUVOr_5armor7parsers6traitsNtB6_10ParseError2iopEBa_
FN:657,_RINvMs1_NtNtCsiXKQ3ZuUVOr_5armor7parsers6traitsNtB6_10ParseError5otherpEBa_
FN:633,_RINvMs1_NtNtCsiXKQ3ZuUVOr_5armor7parsers6traitsNtB6_10ParseError6syntaxpEBa_
FN:558,_RINvMs_NtNtCsiXKQ3ZuUVOr_5armor7parsers6traitsNtB5_13ParseMetadata12with_versionpEB9_
FN:552,_RINvMs_NtNtCsiXKQ3ZuUVOr_5armor7parsers6traitsNtB5_13ParseMetadata14with_extensionpEB9_
FN:528,_RINvMs_NtNtCsiXKQ3ZuUVOr_5armor7parsers6traitsNtB5_13ParseMetadata3newppEB9_
FN:334,_RINvYpINtNtNtCsiXKQ3ZuUVOr_5armor7parsers6traits15StreamingParserppE14parse_parallelpEBb_
FN:200,_RNCNvYpINtNtNtCsiXKQ3ZuUVOr_5armor7parsers6traits6ParserppE10parse_file0Bc_
FN:194,_RNvYpINtNtNtCsiXKQ3ZuUVOr_5armor7parsers6traits6ParserppE10parse_fileBa_
FN:160,_RNvYpINtNtNtCsiXKQ3ZuUVOr_5armor7parsers6traits6ParserppE18parse_with_optionsBa_
FN:252,_RNvYpINtNtNtCsiXKQ3ZuUVOr_5armor7parsers6traits6ParserppE8metadataBa_
FN:229,_RNvYpINtNtNtCsiXKQ3ZuUVOr_5armor7parsers6traits6ParserppE8validateBa_
FNDA:0,_RNvMNtNtCsiXKQ3ZuUVOr_5armor7parsers6traitsNtB2_12ParseOptions14with_delimiter
FNDA:0,_RNvMNtNtCsiXKQ3ZuUVOr_5armor7parsers6traitsNtB2_12ParseOptions14with_max_depth
FNDA:0,_RNvMNtNtCsiXKQ3ZuUVOr_5armor7parsers6traitsNtB2_12ParseOptions16with_strict_mode
FNDA:0,_RNvMNtNtCsiXKQ3ZuUVOr_5armor7parsers6traitsNtB2_12ParseOptions21with_allow_duplicates
FNDA:0,_RNvMNtNtCsiXKQ3ZuUVOr_5armor7parsers6traitsNtB2_12ParseOptions22with_preserve_comments
FNDA:0,_RNvMNtNtCsiXKQ3ZuUVOr_5armor7parsers6traitsNtB2_12ParseOptions3new
FNDA:0,_RNvMNtNtCsiXKQ3ZuUVOr_5armor7parsers6traitsNtB2_12ParseOptions6strict
FNDA:0,_RNvMNtNtCsiXKQ3ZuUVOr_5armor7parsers6traitsNtB2_12ParseOptions7lenient
FNDA:0,_RNvMs1_NtNtCsiXKQ3ZuUVOr_5armor7parsers6traitsNtB5_10ParseError13is_validation
FNDA:0,_RNvMs1_NtNtCsiXKQ3ZuUVOr_5armor7parsers6traitsNtB5_10ParseError16is_type_mismatch
FNDA:0,_RNvMs1_NtNtCsiXKQ3ZuUVOr_5armor7parsers6traitsNtB5_10ParseError5is_io
FNDA:0,_RNvMs1_NtNtCsiXKQ3ZuUVOr_5armor7parsers6traitsNtB5_10ParseError7summary
FNDA:0,_RNvMs1_NtNtCsiXKQ3ZuUVOr_5armor7parsers6traitsNtB5_10ParseError9is_syntax
FNDA:0,_RNvMs_NtNtCsiXKQ3ZuUVOr_5armor7parsers6traitsNtB4_13ParseMetadata10extensions
FNDA:0,_RNvMs_NtNtCsiXKQ3ZuUVOr_5armor7parsers6traitsNtB4_13ParseMetadata14with_streaming
FNDA:0,_RNvMs_NtNtCsiXKQ3ZuUVOr_5armor7parsers6traitsNtB4_13ParseMetadata16with_incremental
FNDA:0,_RNvMs_NtNtCsiXKQ3ZuUVOr_5armor7parsers6traitsNtB4_13ParseMetadata18supports_streaming
FNDA:0,_RNvMs_NtNtCsiXKQ3ZuUVOr_5armor7parsers6traitsNtB4_13ParseMetadata20supports_incremental
FNDA:0,_RNvMs_NtNtCsiXKQ3ZuUVOr_5armor7parsers6traitsNtB4_13ParseMetadata4name
FNDA:0,_RNvMs_NtNtCsiXKQ3ZuUVOr_5armor7parsers6traitsNtB4_13ParseMetadata6format
FNDA:0,_RNvMs_NtNtCsiXKQ3ZuUVOr_5armor7parsers6traitsNtB4_13ParseMetadata7version
FNDA:0,_RNvXs0_NtNtCsiXKQ3ZuUVOr_5armor7parsers6traitsNtB5_13ParseMetadataNtNtCs3BFokC4QLxY_4core7default7Default7default
FNDA:0,_RNvXs2_NtNtCsiXKQ3ZuUVOr_5armor7parsers6traitsNtB5_10ParseErrorNtNtCs3BFokC4QLxY_4core3fmt7Display3fmt
FNDA:0,_RNvXs4_NtNtCsiXKQ3ZuUVOr_5armor7parsers6traitsNtB5_10ParseErrorINtNtCs3BFokC4QLxY_4core7convert4FromNtNtNtB7_4yaml5error10ParseErrorE4from
FNDA:0,_RNvXs5_NtNtCsiXKQ3ZuUVOr_5armor7parsers6traitsNtB5_10ParseErrorINtNtCs3BFokC4QLxY_4core7convert4FromNtNtNtCs3JBboNF8E1m_3std2io5error5ErrorE4from
FNDA:0,_RINvMs1_NtNtCsiXKQ3ZuUVOr_5armor7parsers6traitsNtB6_10ParseError10validationpEBa_
FNDA:0,_RINvMs1_NtNtCsiXKQ3ZuUVOr_5armor7parsers6traitsNtB6_10ParseError13type_mismatchpppEBa_
FNDA:0,_RINvMs1_NtNtCsiXKQ3ZuUVOr_5armor7parsers6traitsNtB6_10ParseError2iopEBa_
FNDA:0,_RINvMs1_NtNtCsiXKQ3ZuUVOr_5armor7parsers6traitsNtB6_10ParseError5otherpEBa_
FNDA:0,_RINvMs1_NtNtCsiXKQ3ZuUVOr_5armor7parsers6traitsNtB6_10ParseError6syntaxpEBa_
FNDA:0,_RINvMs_NtNtCsiXKQ3ZuUVOr_5armor7parsers6traitsNtB5_13ParseMetadata12with_versionpEB9_
FNDA:0,_RINvMs_NtNtCsiXKQ3ZuUVOr_5armor7parsers6traitsNtB5_13ParseMetadata14with_extensionpEB9_
FNDA:0,_RINvMs_NtNtCsiXKQ3ZuUVOr_5armor7parsers6traitsNtB5_13ParseMetadata3newppEB9_
FNDA:0,_RINvYpINtNtNtCsiXKQ3ZuUVOr_5armor7parsers6traits15StreamingParserppE14parse_parallelpEBb_
FNDA:0,_RNCNvYpINtNtNtCsiXKQ3ZuUVOr_5armor7parsers6traits6ParserppE10parse_file0Bc_
FNDA:0,_RNvYpINtNtNtCsiXKQ3ZuUVOr_5armor7parsers6traits6ParserppE10parse_fileBa_
FNDA:0,_RNvYpINtNtNtCsiXKQ3ZuUVOr_5armor7parsers6traits6ParserppE18parse_with_optionsBa_
FNDA:0,_RNvYpINtNtNtCsiXKQ3ZuUVOr_5armor7parsers6traits6ParserppE8metadataBa_
FNDA:0,_RNvYpINtNtNtCsiXKQ3ZuUVOr_5armor7parsers6traits6ParserppE8validateBa_
FNF:39
FNH:0
DA:160,0
DA:161,0
DA:162,0
DA:163,0
DA:194,0
DA:195,0
DA:196,0
DA:197,0
DA:199,0
DA:200,0
DA:201,0
DA:202,0
DA:229,0
DA:230,0
DA:231,0
DA:232,0
DA:252,0
DA:253,0
DA:254,0
DA:334,0
DA:335,0
DA:336,0
DA:337,0
DA:338,0
DA:339,0
DA:340,0
DA:341,0
DA:344,0
DA:345,0
DA:429,0
DA:430,0
DA:431,0
DA:446,0
DA:447,0
DA:448,0
DA:449,0
DA:450,0
DA:451,0
DA:452,0
DA:467,0
DA:468,0
DA:469,0
DA:470,0
DA:471,0
DA:472,0
DA:473,0
DA:476,0
DA:477,0
DA:478,0
DA:479,0
DA:482,0
DA:483,0
DA:484,0
DA:485,0
DA:488,0
DA:489,0
DA:490,0
DA:491,0
DA:494,0
DA:495,0
DA:496,0
DA:497,0
DA:500,0
DA:501,0
DA:502,0
DA:503,0
DA:528,0
DA:529,0
DA:530,0
DA:531,0
DA:532,0
DA:533,0
DA:534,0
DA:535,0
DA:536,0
DA:537,0
DA:540,0
DA:541,0
DA:542,0
DA:543,0
DA:546,0
DA:547,0
DA:548,0
DA:549,0
DA:552,0
DA:553,0
DA:554,0
DA:555,0
DA:558,0
DA:559,0
DA:560,0
DA:561,0
DA:564,0
DA:565,0
DA:566,0
DA:569,0
DA:570,0
DA:571,0
DA:574,0
DA:575,0
DA:576,0
DA:579,0
DA:580,0
DA:581,0
DA:584,0
DA:585,0
DA:586,0
DA:589,0
DA:590,0
DA:591,0
DA:595,0
DA:596,0
DA:597,0
DA:598,0
DA:599,0
DA:600,0
DA:601,0
DA:602,0
DA:603,0
DA:604,0
DA:633,0
DA:634,0
DA:635,0
DA:638,0
DA:639,0
DA:640,0
DA:643,0
DA:644,0
DA:645,0
DA:648,0
DA:649,0
DA:650,0
DA:651,0
DA:652,0
DA:653,0
DA:654,0
DA:657,0
DA:658,0
DA:659,0
DA:662,0
DA:663,0
DA:664,0
DA:665,0
DA:668,0
DA:669,0
DA:670,0
DA:671,0
DA:674,0
DA:675,0
DA:676,0
DA:677,0
DA:680,0
DA:681,0
DA:682,0
DA:683,0
DA:686,0
DA:687,0
DA:688,0
DA:689,0
DA:690,0
DA:691,0
DA:692,0
DA:694,0
DA:695,0
DA:697,0
DA:701,0
DA:702,0
DA:703,0
DA:709,0
DA:710,0
DA:711,0
DA:715,0
DA:716,0
DA:717,0
BRF:0
BRH:0
LF:175
LH:0
end_of_record
SF:/home/coding/ARMOR/src/parsers/yaml/error.rs
FN:719,_RINvMNtNtNtCsiXKQ3ZuUVOr_5armor7parsers4yaml5errorNtB3_10ParseError10validationReECsfqhiSsJBJjh_24parse_error_display_test
FN:520,_RINvMNtNtNtCsiXKQ3ZuUVOr_5armor7parsers4yaml5errorNtB3_10ParseError12with_contextReECsfqhiSsJBJjh_24parse_error_display_test
FN:499,_RINvMNtNtNtCsiXKQ3ZuUVOr_5armor7parsers4yaml5errorNtB3_10ParseError12with_snippetReECsfqhiSsJBJjh_24parse_error_display_test
FN:729,_RINvMNtNtNtCsiXKQ3ZuUVOr_5armor7parsers4yaml5errorNtB3_10ParseError13type_mismatchReB1i_B1i_ECsfqhiSsJBJjh_24parse_error_display_test
FN:714,_RINvMNtNtNtCsiXKQ3ZuUVOr_5armor7parsers4yaml5errorNtB3_10ParseError2ioReECsfqhiSsJBJjh_24parse_error_display_test
FN:709,_RINvMNtNtNtCsiXKQ3ZuUVOr_5armor7parsers4yaml5errorNtB3_10ParseError6syntaxReECsfqhiSsJBJjh_24parse_error_display_test
FN:476,_RINvMNtNtNtCsiXKQ3ZuUVOr_5armor7parsers4yaml5errorNtB3_10ParseError9with_pathReECsfqhiSsJBJjh_24parse_error_display_test
FN:520,_RINvMNtNtNtCsiXKQ3ZuUVOr_5armor7parsers4yaml5errorNtB3_10ParseError12with_contextNtNtCs8y6E41fb8tc_5alloc6string6StringEB9_
FN:457,_RNvMNtNtNtCsiXKQ3ZuUVOr_5armor7parsers4yaml5errorNtB2_10ParseError11with_column
FN:748,_RNvMNtNtNtCsiXKQ3ZuUVOr_5armor7parsers4yaml5errorNtB2_10ParseError13is_validation
FN:540,_RNvMNtNtNtCsiXKQ3ZuUVOr_5armor7parsers4yaml5errorNtB2_10ParseError13with_location
FN:648,_RNvMNtNtNtCsiXKQ3ZuUVOr_5armor7parsers4yaml5errorNtB2_10ParseError15detailed_report
FN:576,_RNvMNtNtNtCsiXKQ3ZuUVOr_5armor7parsers4yaml5errorNtB2_10ParseError15location_string
FN:753,_RNvMNtNtNtCsiXKQ3ZuUVOr_5armor7parsers4yaml5errorNtB2_10ParseError16is_type_mismatch
FN:698,_RNvMNtNtNtCsiXKQ3ZuUVOr_5armor7parsers4yaml5errorNtB2_10ParseError17format_structured
FN:415,_RNvMNtNtNtCsiXKQ3ZuUVOr_5armor7parsers4yaml5errorNtB2_10ParseError3new
FN:743,_RNvMNtNtNtCsiXKQ3ZuUVOr_5armor7parsers4yaml5errorNtB2_10ParseError5is_io
FN:614,_RNvMNtNtNtCsiXKQ3ZuUVOr_5armor7parsers4yaml5errorNtB2_10ParseError7summary
FN:738,_RNvMNtNtNtCsiXKQ3ZuUVOr_5armor7parsers4yaml5errorNtB2_10ParseError9is_syntax
FN:439,_RNvMNtNtNtCsiXKQ3ZuUVOr_5armor7parsers4yaml5errorNtB2_10ParseError9with_line
FN:786,_RNvXs1_NtNtNtCsiXKQ3ZuUVOr_5armor7parsers4yaml5errorNtB5_10ParseErrorNtNtCs3BFokC4QLxY_4core3cmp9PartialEq2eq
FN:797,_RNvXs2_NtNtNtCsiXKQ3ZuUVOr_5armor7parsers4yaml5errorNtB5_10ParseErrorNtNtCs3BFokC4QLxY_4core3fmt5Debug3fmt
FN:876,_RNvXs3_NtNtNtCsiXKQ3ZuUVOr_5armor7parsers4yaml5errorNtB5_14ParseErrorKindNtNtCs3BFokC4QLxY_4core3fmt7Display3fmt
FN:901,_RNvXs4_NtNtNtCsiXKQ3ZuUVOr_5armor7parsers4yaml5errorNtB5_10ParseErrorINtNtCs3BFokC4QLxY_4core7convert4FromNtNtNtCs3JBboNF8E1m_3std2io5error5ErrorE4from
FN:907,_RNvXs5_NtNtNtCsiXKQ3ZuUVOr_5armor7parsers4yaml5errorNtB5_10ParseErrorINtNtCs3BFokC4QLxY_4core7convert4FromNtNtCs9jGxXgzlsBn_10serde_yaml5error5ErrorE4from
FN:927,_RNvXs6_NtNtNtCsiXKQ3ZuUVOr_5armor7parsers4yaml5errorNtB5_10ParseErrorINtNtCs3BFokC4QLxY_4core7convert4FromNtNtNtB1a_3str5error9Utf8ErrorE4from
FN:933,_RNvXs7_NtNtNtCsiXKQ3ZuUVOr_5armor7parsers4yaml5errorNtB5_10ParseErrorINtNtCs3BFokC4QLxY_4core7convert4FromNtNtCs8y6E41fb8tc_5alloc6string13FromUtf8ErrorE4from
FN:759,_RNvXs_NtNtNtCsiXKQ3ZuUVOr_5armor7parsers4yaml5errorNtB4_10ParseErrorNtNtCs3BFokC4QLxY_4core3fmt7Display3fmt
FN:719,_RINvMNtNtNtCsiXKQ3ZuUVOr_5armor7parsers4yaml5errorNtB3_10ParseError10validationpEB9_
FN:499,_RINvMNtNtNtCsiXKQ3ZuUVOr_5armor7parsers4yaml5errorNtB3_10ParseError12with_snippetpEB9_
FN:729,_RINvMNtNtNtCsiXKQ3ZuUVOr_5armor7parsers4yaml5errorNtB3_10ParseError13type_mismatchpppEB9_
FN:714,_RINvMNtNtNtCsiXKQ3ZuUVOr_5armor7parsers4yaml5errorNtB3_10ParseError2iopEB9_
FN:709,_RINvMNtNtNtCsiXKQ3ZuUVOr_5armor7parsers4yaml5errorNtB3_10ParseError6syntaxpEB9_
FN:476,_RINvMNtNtNtCsiXKQ3ZuUVOr_5armor7parsers4yaml5errorNtB3_10ParseError9with_pathpEB9_
FN:719,_RINvMNtNtNtCsiXKQ3ZuUVOr_5armor7parsers4yaml5errorNtB3_10ParseError10validationNtNtCs8y6E41fb8tc_5alloc6string6StringECsg1CvOFVNHs7_28parse_error_integration_test
FN:719,_RINvMNtNtNtCsiXKQ3ZuUVOr_5armor7parsers4yaml5errorNtB3_10ParseError10validationReECsg1CvOFVNHs7_28parse_error_integration_test
FN:520,_RINvMNtNtNtCsiXKQ3ZuUVOr_5armor7parsers4yaml5errorNtB3_10ParseError12with_contextReECsg1CvOFVNHs7_28parse_error_integration_test
FN:499,_RINvMNtNtNtCsiXKQ3ZuUVOr_5armor7parsers4yaml5errorNtB3_10ParseError12with_snippetReECsg1CvOFVNHs7_28parse_error_integration_test
FN:729,_RINvMNtNtNtCsiXKQ3ZuUVOr_5armor7parsers4yaml5errorNtB3_10ParseError13type_mismatchReB1i_B1i_ECsg1CvOFVNHs7_28parse_error_integration_test
FN:714,_RINvMNtNtNtCsiXKQ3ZuUVOr_5armor7parsers4yaml5errorNtB3_10ParseError2ioNtNtCs8y6E41fb8tc_5alloc6string6StringECsg1CvOFVNHs7_28parse_error_integration_test
FN:714,_RINvMNtNtNtCsiXKQ3ZuUVOr_5armor7parsers4yaml5errorNtB3_10ParseError2ioReECsg1CvOFVNHs7_28parse_error_integration_test
FN:709,_RINvMNtNtNtCsiXKQ3ZuUVOr_5armor7parsers4yaml5errorNtB3_10ParseError6syntaxReECsg1CvOFVNHs7_28parse_error_integration_test
FN:476,_RINvMNtNtNtCsiXKQ3ZuUVOr_5armor7parsers4yaml5errorNtB3_10ParseError9with_pathReECsg1CvOFVNHs7_28parse_error_integration_test
FN:719,_RINvMNtNtNtCsiXKQ3ZuUVOr_5armor7parsers4yaml5errorNtB3_10ParseError10validationReECsgSozXLcgAiT_21parse_error_unit_test
FN:520,_RINvMNtNtNtCsiXKQ3ZuUVOr_5armor7parsers4yaml5errorNtB3_10ParseError12with_contextReECsgSozXLcgAiT_21parse_error_unit_test
FN:499,_RINvMNtNtNtCsiXKQ3ZuUVOr_5armor7parsers4yaml5errorNtB3_10ParseError12with_snippetReECsgSozXLcgAiT_21parse_error_unit_test
FN:729,_RINvMNtNtNtCsiXKQ3ZuUVOr_5armor7parsers4yaml5errorNtB3_10ParseError13type_mismatchReB1i_B1i_ECsgSozXLcgAiT_21parse_error_unit_test
FN:714,_RINvMNtNtNtCsiXKQ3ZuUVOr_5armor7parsers4yaml5errorNtB3_10ParseError2ioReECsgSozXLcgAiT_21parse_error_unit_test
FN:709,_RINvMNtNtNtCsiXKQ3ZuUVOr_5armor7parsers4yaml5errorNtB3_10ParseError6syntaxReECsgSozXLcgAiT_21parse_error_unit_test
FN:476,_RINvMNtNtNtCsiXKQ3ZuUVOr_5armor7parsers4yaml5errorNtB3_10ParseError9with_pathReECsgSozXLcgAiT_21parse_error_unit_test
FNDA:2,_RINvMNtNtNtCsiXKQ3ZuUVOr_5armor7parsers4yaml5errorNtB3_10ParseError10validationReECsfqhiSsJBJjh_24parse_error_display_test
FNDA:5,_RINvMNtNtNtCsiXKQ3ZuUVOr_5armor7parsers4yaml5errorNtB3_10ParseError12with_contextReECsfqhiSsJBJjh_24parse_error_display_test
FNDA:5,_RINvMNtNtNtCsiXKQ3ZuUVOr_5armor7parsers4yaml5errorNtB3_10ParseError12with_snippetReECsfqhiSsJBJjh_24parse_error_display_test
FNDA:4,_RINvMNtNtNtCsiXKQ3ZuUVOr_5armor7parsers4yaml5errorNtB3_10ParseError13type_mismatchReB1i_B1i_ECsfqhiSsJBJjh_24parse_error_display_test
FNDA:2,_RINvMNtNtNtCsiXKQ3ZuUVOr_5armor7parsers4yaml5errorNtB3_10ParseError2ioReECsfqhiSsJBJjh_24parse_error_display_test
FNDA:20,_RINvMNtNtNtCsiXKQ3ZuUVOr_5armor7parsers4yaml5errorNtB3_10ParseError6syntaxReECsfqhiSsJBJjh_24parse_error_display_test
FNDA:22,_RINvMNtNtNtCsiXKQ3ZuUVOr_5armor7parsers4yaml5errorNtB3_10ParseError9with_pathReECsfqhiSsJBJjh_24parse_error_display_test
FNDA:2,_RINvMNtNtNtCsiXKQ3ZuUVOr_5armor7parsers4yaml5errorNtB3_10ParseError12with_contextNtNtCs8y6E41fb8tc_5alloc6string6StringEB9_
FNDA:29,_RNvMNtNtNtCsiXKQ3ZuUVOr_5armor7parsers4yaml5errorNtB2_10ParseError11with_column
FNDA:21,_RNvMNtNtNtCsiXKQ3ZuUVOr_5armor7parsers4yaml5errorNtB2_10ParseError13is_validation
FNDA:10,_RNvMNtNtNtCsiXKQ3ZuUVOr_5armor7parsers4yaml5errorNtB2_10ParseError13with_location
FNDA:5,_RNvMNtNtNtCsiXKQ3ZuUVOr_5armor7parsers4yaml5errorNtB2_10ParseError15detailed_report
FNDA:49,_RNvMNtNtNtCsiXKQ3ZuUVOr_5armor7parsers4yaml5errorNtB2_10ParseError15location_string
FNDA:18,_RNvMNtNtNtCsiXKQ3ZuUVOr_5armor7parsers4yaml5errorNtB2_10ParseError16is_type_mismatch
FNDA:2,_RNvMNtNtNtCsiXKQ3ZuUVOr_5armor7parsers4yaml5errorNtB2_10ParseError17format_structured
FNDA:133,_RNvMNtNtNtCsiXKQ3ZuUVOr_5armor7parsers4yaml5errorNtB2_10ParseError3new
FNDA:17,_RNvMNtNtNtCsiXKQ3ZuUVOr_5armor7parsers4yaml5errorNtB2_10ParseError5is_io
FNDA:36,_RNvMNtNtNtCsiXKQ3ZuUVOr_5armor7parsers4yaml5errorNtB2_10ParseError7summary
FNDA:17,_RNvMNtNtNtCsiXKQ3ZuUVOr_5armor7parsers4yaml5errorNtB2_10ParseError9is_syntax
FNDA:47,_RNvMNtNtNtCsiXKQ3ZuUVOr_5armor7parsers4yaml5errorNtB2_10ParseError9with_line
FNDA:9,_RNvXs1_NtNtNtCsiXKQ3ZuUVOr_5armor7parsers4yaml5errorNtB5_10ParseErrorNtNtCs3BFokC4QLxY_4core3cmp9PartialEq2eq
FNDA:2,_RNvXs2_NtNtNtCsiXKQ3ZuUVOr_5armor7parsers4yaml5errorNtB5_10ParseErrorNtNtCs3BFokC4QLxY_4core3fmt5Debug3fmt
FNDA:45,_RNvXs3_NtNtNtCsiXKQ3ZuUVOr_5armor7parsers4yaml5errorNtB5_14ParseErrorKindNtNtCs3BFokC4QLxY_4core3fmt7Display3fmt
FNDA:0,_RNvXs4_NtNtNtCsiXKQ3ZuUVOr_5armor7parsers4yaml5errorNtB5_10ParseErrorINtNtCs3BFokC4QLxY_4core7convert4FromNtNtNtCs3JBboNF8E1m_3std2io5error5ErrorE4from
FNDA:0,_RNvXs5_NtNtNtCsiXKQ3ZuUVOr_5armor7parsers4yaml5errorNtB5_10ParseErrorINtNtCs3BFokC4QLxY_4core7convert4FromNtNtCs9jGxXgzlsBn_10serde_yaml5error5ErrorE4from
FNDA:0,_RNvXs6_NtNtNtCsiXKQ3ZuUVOr_5armor7parsers4yaml5errorNtB5_10ParseErrorINtNtCs3BFokC4QLxY_4core7convert4FromNtNtNtB1a_3str5error9Utf8ErrorE4from
FNDA:0,_RNvXs7_NtNtNtCsiXKQ3ZuUVOr_5armor7parsers4yaml5errorNtB5_10ParseErrorINtNtCs3BFokC4QLxY_4core7convert4FromNtNtCs8y6E41fb8tc_5alloc6string13FromUtf8ErrorE4from
FNDA:19,_RNvXs_NtNtNtCsiXKQ3ZuUVOr_5armor7parsers4yaml5errorNtB4_10ParseErrorNtNtCs3BFokC4QLxY_4core3fmt7Display3fmt
FNDA:0,_RINvMNtNtNtCsiXKQ3ZuUVOr_5armor7parsers4yaml5errorNtB3_10ParseError10validationpEB9_
FNDA:0,_RINvMNtNtNtCsiXKQ3ZuUVOr_5armor7parsers4yaml5errorNtB3_10ParseError12with_snippetpEB9_
FNDA:0,_RINvMNtNtNtCsiXKQ3ZuUVOr_5armor7parsers4yaml5errorNtB3_10ParseError13type_mismatchpppEB9_
FNDA:0,_RINvMNtNtNtCsiXKQ3ZuUVOr_5armor7parsers4yaml5errorNtB3_10ParseError2iopEB9_
FNDA:0,_RINvMNtNtNtCsiXKQ3ZuUVOr_5armor7parsers4yaml5errorNtB3_10ParseError6syntaxpEB9_
FNDA:0,_RINvMNtNtNtCsiXKQ3ZuUVOr_5armor7parsers4yaml5errorNtB3_10ParseError9with_pathpEB9_
FNDA:2,_RINvMNtNtNtCsiXKQ3ZuUVOr_5armor7parsers4yaml5errorNtB3_10ParseError10validationNtNtCs8y6E41fb8tc_5alloc6string6StringECsg1CvOFVNHs7_28parse_error_integration_test
FNDA:7,_RINvMNtNtNtCsiXKQ3ZuUVOr_5armor7parsers4yaml5errorNtB3_10ParseError10validationReECsg1CvOFVNHs7_28parse_error_integration_test
FNDA:19,_RINvMNtNtNtCsiXKQ3ZuUVOr_5armor7parsers4yaml5errorNtB3_10ParseError12with_contextReECsg1CvOFVNHs7_28parse_error_integration_test
FNDA:13,_RINvMNtNtNtCsiXKQ3ZuUVOr_5armor7parsers4yaml5errorNtB3_10ParseError12with_snippetReECsg1CvOFVNHs7_28parse_error_integration_test
FNDA:6,_RINvMNtNtNtCsiXKQ3ZuUVOr_5armor7parsers4yaml5errorNtB3_10ParseError13type_mismatchReB1i_B1i_ECsg1CvOFVNHs7_28parse_error_integration_test
FNDA:1,_RINvMNtNtNtCsiXKQ3ZuUVOr_5armor7parsers4yaml5errorNtB3_10ParseError2ioNtNtCs8y6E41fb8tc_5alloc6string6StringECsg1CvOFVNHs7_28parse_error_integration_test
FNDA:5,_RINvMNtNtNtCsiXKQ3ZuUVOr_5armor7parsers4yaml5errorNtB3_10ParseError2ioReECsg1CvOFVNHs7_28parse_error_integration_test
FNDA:8,_RINvMNtNtNtCsiXKQ3ZuUVOr_5armor7parsers4yaml5errorNtB3_10ParseError6syntaxReECsg1CvOFVNHs7_28parse_error_integration_test
FNDA:25,_RINvMNtNtNtCsiXKQ3ZuUVOr_5armor7parsers4yaml5errorNtB3_10ParseError9with_pathReECsg1CvOFVNHs7_28parse_error_integration_test
FNDA:3,_RINvMNtNtNtCsiXKQ3ZuUVOr_5armor7parsers4yaml5errorNtB3_10ParseError10validationReECsgSozXLcgAiT_21parse_error_unit_test
FNDA:8,_RINvMNtNtNtCsiXKQ3ZuUVOr_5armor7parsers4yaml5errorNtB3_10ParseError12with_contextReECsgSozXLcgAiT_21parse_error_unit_test
FNDA:9,_RINvMNtNtNtCsiXKQ3ZuUVOr_5armor7parsers4yaml5errorNtB3_10ParseError12with_snippetReECsgSozXLcgAiT_21parse_error_unit_test
FNDA:8,_RINvMNtNtNtCsiXKQ3ZuUVOr_5armor7parsers4yaml5errorNtB3_10ParseError13type_mismatchReB1i_B1i_ECsgSozXLcgAiT_21parse_error_unit_test
FNDA:4,_RINvMNtNtNtCsiXKQ3ZuUVOr_5armor7parsers4yaml5errorNtB3_10ParseError2ioReECsgSozXLcgAiT_21parse_error_unit_test
FNDA:34,_RINvMNtNtNtCsiXKQ3ZuUVOr_5armor7parsers4yaml5errorNtB3_10ParseError6syntaxReECsgSozXLcgAiT_21parse_error_unit_test
FNDA:14,_RINvMNtNtNtCsiXKQ3ZuUVOr_5armor7parsers4yaml5errorNtB3_10ParseError9with_pathReECsgSozXLcgAiT_21parse_error_unit_test
FNF:27
FNH:23
DA:415,133
DA:416,133
DA:417,133
DA:418,133
DA:419,133
DA:420,133
DA:421,133
DA:422,133
DA:423,133
DA:424,133
DA:439,47
DA:440,47
DA:441,47
DA:442,47
DA:457,29
DA:458,29
DA:459,29
DA:460,29
DA:476,61
DA:477,61
DA:478,61
DA:479,61
DA:499,27
DA:500,27
DA:501,27
DA:502,27
DA:520,34
DA:521,34
DA:522,34
DA:523,34
DA:540,10
DA:541,10
DA:542,10
DA:543,10
DA:544,10
DA:576,49
DA:577,49
DA:578,25
DA:579,12
DA:580,1
DA:581,5
DA:582,1
DA:583,1
DA:584,1
DA:585,3
DA:587,49
DA:614,36
DA:615,36
DA:616,36
DA:617,20
DA:619,16
DA:621,36
DA:648,5
DA:649,5
DA:652,5
DA:655,5
DA:656,4
DA:657,4
DA:660,5
DA:661,5
DA:662,9
DA:663,9
DA:664,9
DA:667,5
DA:668,4
DA:669,4
DA:670,4
DA:671,1
DA:672,0
DA:674,5
DA:675,5
DA:698,2
DA:699,2
DA:702,2
DA:706,2
DA:709,62
DA:710,62
DA:711,62
DA:714,12
DA:715,12
DA:716,12
DA:719,14
DA:720,14
DA:721,14
DA:729,18
DA:730,18
DA:731,18
DA:732,18
DA:733,18
DA:734,18
DA:735,18
DA:738,17
DA:739,17
DA:740,17
DA:743,17
DA:744,17
DA:745,17
DA:748,21
DA:749,21
DA:750,21
DA:753,18
DA:754,18
DA:755,18
DA:759,19
DA:761,19
DA:764,19
DA:765,7
DA:766,16
DA:767,16
DA:771,7
DA:772,7
DA:773,7
DA:774,7
DA:775,0
DA:776,0
DA:777,12
DA:779,19
DA:780,19
DA:786,9
DA:789,9
DA:790,7
DA:791,6
DA:792,6
DA:793,9
DA:797,2
DA:798,2
DA:799,2
DA:800,2
DA:801,2
DA:802,2
DA:803,2
DA:804,2
DA:805,2
DA:806,2
DA:807,2
DA:876,45
DA:877,45
DA:878,16
DA:879,4
DA:880,8
DA:881,5
DA:882,5
DA:884,3
DA:885,2
DA:886,3
DA:887,3
DA:888,1
DA:890,45
DA:901,0
DA:902,0
DA:903,0
DA:907,0
DA:910,0
DA:912,0
DA:913,0
DA:914,0
DA:915,0
DA:916,0
DA:917,0
DA:919,0
DA:922,0
DA:923,0
DA:927,0
DA:928,0
DA:929,0
DA:933,0
DA:934,0
DA:935,0
BRF:0
BRH:0
LF:168
LH:145
end_of_record
SF:/home/coding/ARMOR/src/parsers/yaml/mod.rs
FN:51,_RNvNtNtCsiXKQ3ZuUVOr_5armor7parsers4yaml10new_parser
FN:66,_RNvNtNtCsiXKQ3ZuUVOr_5armor7parsers4yaml10parse_yaml
FN:73,_RNvNtNtCsiXKQ3ZuUVOr_5armor7parsers4yaml15parse_yaml_file
FN:59,_RNvNtNtCsiXKQ3ZuUVOr_5armor7parsers4yaml17new_strict_parser
FNDA:0,_RNvNtNtCsiXKQ3ZuUVOr_5armor7parsers4yaml10new_parser
FNDA:0,_RNvNtNtCsiXKQ3ZuUVOr_5armor7parsers4yaml10parse_yaml
FNDA:0,_RNvNtNtCsiXKQ3ZuUVOr_5armor7parsers4yaml15parse_yaml_file
FNDA:0,_RNvNtNtCsiXKQ3ZuUVOr_5armor7parsers4yaml17new_strict_parser
FNF:4
FNH:0
DA:51,0
DA:52,0
DA:53,0
DA:59,0
DA:60,0
DA:61,0
DA:66,0
DA:67,0
DA:68,0
DA:73,0
DA:74,0
DA:75,0
BRF:0
BRH:0
LF:12
LH:0
end_of_record
SF:/home/coding/ARMOR/src/parsers/yaml/parser.rs
FN:73,_RNvMNtNtNtCsiXKQ3ZuUVOr_5armor7parsers4yaml6parserNtB2_11BasicParser11with_config
FN:66,_RNvMNtNtNtCsiXKQ3ZuUVOr_5armor7parsers4yaml6parserNtB2_11BasicParser3new
FN:81,_RNvMNtNtNtCsiXKQ3ZuUVOr_5armor7parsers4yaml6parserNtB2_11BasicParser6strict
FN:105,_RNvXs0_NtNtNtCsiXKQ3ZuUVOr_5armor7parsers4yaml6parserNtB5_11BasicParserNtB5_6Parser10parse_file
FN:100,_RNvXs0_NtNtNtCsiXKQ3ZuUVOr_5armor7parsers4yaml6parserNtB5_11BasicParserNtB5_6Parser11parse_bytes
FN:124,_RNvXs0_NtNtNtCsiXKQ3ZuUVOr_5armor7parsers4yaml6parserNtB5_11BasicParserNtB5_6Parser11with_config
FN:110,_RNvXs0_NtNtNtCsiXKQ3ZuUVOr_5armor7parsers4yaml6parserNtB5_11BasicParserNtB5_6Parser12validate_str
FN:115,_RNvXs0_NtNtNtCsiXKQ3ZuUVOr_5armor7parsers4yaml6parserNtB5_11BasicParserNtB5_6Parser13validate_file
FN:120,_RNvXs0_NtNtNtCsiXKQ3ZuUVOr_5armor7parsers4yaml6parserNtB5_11BasicParserNtB5_6Parser6config
FN:95,_RNvXs0_NtNtNtCsiXKQ3ZuUVOr_5armor7parsers4yaml6parserNtB5_11BasicParserNtB5_6Parser9parse_str
FN:89,_RNvXs_NtNtNtCsiXKQ3ZuUVOr_5armor7parsers4yaml6parserNtB4_11BasicParserNtNtCs3BFokC4QLxY_4core7default7Default7default
FNDA:0,_RNvMNtNtNtCsiXKQ3ZuUVOr_5armor7parsers4yaml6parserNtB2_11BasicParser11with_config
FNDA:0,_RNvMNtNtNtCsiXKQ3ZuUVOr_5armor7parsers4yaml6parserNtB2_11BasicParser3new
FNDA:0,_RNvMNtNtNtCsiXKQ3ZuUVOr_5armor7parsers4yaml6parserNtB2_11BasicParser6strict
FNDA:0,_RNvXs0_NtNtNtCsiXKQ3ZuUVOr_5armor7parsers4yaml6parserNtB5_11BasicParserNtB5_6Parser10parse_file
FNDA:0,_RNvXs0_NtNtNtCsiXKQ3ZuUVOr_5armor7parsers4yaml6parserNtB5_11BasicParserNtB5_6Parser11parse_bytes
FNDA:0,_RNvXs0_NtNtNtCsiXKQ3ZuUVOr_5armor7parsers4yaml6parserNtB5_11BasicParserNtB5_6Parser11with_config
FNDA:0,_RNvXs0_NtNtNtCsiXKQ3ZuUVOr_5armor7parsers4yaml6parserNtB5_11BasicParserNtB5_6Parser12validate_str
FNDA:0,_RNvXs0_NtNtNtCsiXKQ3ZuUVOr_5armor7parsers4yaml6parserNtB5_11BasicParserNtB5_6Parser13validate_file
FNDA:0,_RNvXs0_NtNtNtCsiXKQ3ZuUVOr_5armor7parsers4yaml6parserNtB5_11BasicParserNtB5_6Parser6config
FNDA:0,_RNvXs0_NtNtNtCsiXKQ3ZuUVOr_5armor7parsers4yaml6parserNtB5_11BasicParserNtB5_6Parser9parse_str
FNDA:0,_RNvXs_NtNtNtCsiXKQ3ZuUVOr_5armor7parsers4yaml6parserNtB4_11BasicParserNtNtCs3BFokC4QLxY_4core7default7Default7default
FNF:11
FNH:0
DA:66,0
DA:67,0
DA:68,0
DA:69,0
DA:70,0
DA:73,0
DA:74,0
DA:75,0
DA:81,0
DA:82,0
DA:83,0
DA:84,0
DA:85,0
DA:89,0
DA:90,0
DA:91,0
DA:95,0
DA:97,0
DA:98,0
DA:100,0
DA:102,0
DA:103,0
DA:105,0
DA:107,0
DA:108,0
DA:110,0
DA:112,0
DA:113,0
DA:115,0
DA:117,0
DA:118,0
DA:120,0
DA:121,0
DA:122,0
DA:124,0
DA:125,0
DA:126,0
DA:128,0
DA:129,0
BRF:0
BRH:0
LF:39
LH:0
end_of_record
SF:/home/coding/ARMOR/src/parsers/yaml/types.rs
FN:19,_RNvMNtNtNtCsiXKQ3ZuUVOr_5armor7parsers4yaml5typesNtB2_6Status10is_success
FN:38,_RNvMNtNtNtCsiXKQ3ZuUVOr_5armor7parsers4yaml5typesNtB2_6Status7as_bool
FN:24,_RNvMNtNtNtCsiXKQ3ZuUVOr_5armor7parsers4yaml5typesNtB2_6Status8is_error
FN:29,_RNvMNtNtNtCsiXKQ3ZuUVOr_5armor7parsers4yaml5typesNtB2_6Status9from_bool
FN:137,_RNvMs1_NtNtNtCsiXKQ3ZuUVOr_5armor7parsers4yaml5typesINtB5_11ParseResultNtNtCs9jGxXgzlsBn_10serde_yaml5value5ValueE7successBb_
FN:250,_RNvMs3_NtNtNtCsiXKQ3ZuUVOr_5armor7parsers4yaml5typesNtB5_13ParseMetadata10with_bytes
FN:244,_RNvMs3_NtNtNtCsiXKQ3ZuUVOr_5armor7parsers4yaml5typesNtB5_13ParseMetadata10with_lines
FN:239,_RNvMs3_NtNtNtCsiXKQ3ZuUVOr_5armor7parsers4yaml5typesNtB5_13ParseMetadata3new
FN:298,_RNvMs4_NtNtNtCsiXKQ3ZuUVOr_5armor7parsers4yaml5typesNtB5_16ValidationResult10has_errors
FN:303,_RNvMs4_NtNtNtCsiXKQ3ZuUVOr_5armor7parsers4yaml5typesNtB5_16ValidationResult12has_warnings
FN:284,_RNvMs4_NtNtNtCsiXKQ3ZuUVOr_5armor7parsers4yaml5typesNtB5_16ValidationResult7failure
FN:275,_RNvMs4_NtNtNtCsiXKQ3ZuUVOr_5armor7parsers4yaml5typesNtB5_16ValidationResult7success
FN:293,_RNvMs4_NtNtNtCsiXKQ3ZuUVOr_5armor7parsers4yaml5typesNtB5_16ValidationResult8is_valid
FN:309,_RNvXs5_NtNtNtCsiXKQ3ZuUVOr_5armor7parsers4yaml5typesNtB5_16ValidationResultNtNtCs3BFokC4QLxY_4core7default7Default7default
FN:44,_RNvXs_NtNtNtCsiXKQ3ZuUVOr_5armor7parsers4yaml5typesNtB4_6StatusNtNtCs3BFokC4QLxY_4core3fmt7Display3fmt
FN:196,_RINvMs1_NtNtNtCsiXKQ3ZuUVOr_5armor7parsers4yaml5typesINtB6_11ParseResultpE3mapppEBc_
FN:256,_RINvMs3_NtNtNtCsiXKQ3ZuUVOr_5armor7parsers4yaml5typesNtB6_13ParseMetadata11with_sourcepEBc_
FN:104,_RNvMs0_NtNtNtCsiXKQ3ZuUVOr_5armor7parsers4yaml5typesINtB5_15OperationResultpE10is_successBb_
FN:75,_RNvMs0_NtNtNtCsiXKQ3ZuUVOr_5armor7parsers4yaml5typesINtB5_15OperationResultpE3newBb_
FN:95,_RNvMs0_NtNtNtCsiXKQ3ZuUVOr_5armor7parsers4yaml5typesINtB5_15OperationResultpE5errorBb_
FN:83,_RNvMs0_NtNtNtCsiXKQ3ZuUVOr_5armor7parsers4yaml5typesINtB5_15OperationResultpE7successBb_
FN:114,_RNvMs0_NtNtNtCsiXKQ3ZuUVOr_5armor7parsers4yaml5typesINtB5_15OperationResultpE8get_dataBb_
FN:109,_RNvMs0_NtNtNtCsiXKQ3ZuUVOr_5armor7parsers4yaml5typesINtB5_15OperationResultpE8is_errorBb_
FN:119,_RNvMs0_NtNtNtCsiXKQ3ZuUVOr_5armor7parsers4yaml5typesINtB5_15OperationResultpE9get_errorBb_
FN:160,_RNvMs1_NtNtNtCsiXKQ3ZuUVOr_5armor7parsers4yaml5typesINtB5_11ParseResultpE10is_failureBb_
FN:155,_RNvMs1_NtNtNtCsiXKQ3ZuUVOr_5armor7parsers4yaml5typesINtB5_11ParseResultpE10is_successBb_
FN:172,_RNvMs1_NtNtNtCsiXKQ3ZuUVOr_5armor7parsers4yaml5typesINtB5_11ParseResultpE5errorBb_
FN:167,_RNvMs1_NtNtNtCsiXKQ3ZuUVOr_5armor7parsers4yaml5typesINtB5_11ParseResultpE5valueBb_
FN:184,_RNvMs1_NtNtNtCsiXKQ3ZuUVOr_5armor7parsers4yaml5typesINtB5_11ParseResultpE6unwrapBb_
FN:146,_RNvMs1_NtNtNtCsiXKQ3ZuUVOr_5armor7parsers4yaml5typesINtB5_11ParseResultpE7failureBb_
FN:177,_RNvMs1_NtNtNtCsiXKQ3ZuUVOr_5armor7parsers4yaml5typesINtB5_11ParseResultpE8metadataBb_
FN:191,_RNvMs1_NtNtNtCsiXKQ3ZuUVOr_5armor7parsers4yaml5typesINtB5_11ParseResultpE9unwrap_orBb_
FN:216,_RNvXININtNtNtCsiXKQ3ZuUVOr_5armor7parsers4yaml5typess2_0pEINtB5_11ParseResultpEINtNtCs3BFokC4QLxY_4core7convert4FromINtNtB1k_6result6ResultpNtNtB7_5error10ParseErrorEE4fromBb_
FNDA:0,_RNvMNtNtNtCsiXKQ3ZuUVOr_5armor7parsers4yaml5typesNtB2_6Status10is_success
FNDA:0,_RNvMNtNtNtCsiXKQ3ZuUVOr_5armor7parsers4yaml5typesNtB2_6Status7as_bool
FNDA:0,_RNvMNtNtNtCsiXKQ3ZuUVOr_5armor7parsers4yaml5typesNtB2_6Status8is_error
FNDA:0,_RNvMNtNtNtCsiXKQ3ZuUVOr_5armor7parsers4yaml5typesNtB2_6Status9from_bool
FNDA:0,_RNvMs1_NtNtNtCsiXKQ3ZuUVOr_5armor7parsers4yaml5typesINtB5_11ParseResultNtNtCs9jGxXgzlsBn_10serde_yaml5value5ValueE7successBb_
FNDA:0,_RNvMs3_NtNtNtCsiXKQ3ZuUVOr_5armor7parsers4yaml5typesNtB5_13ParseMetadata10with_bytes
FNDA:0,_RNvMs3_NtNtNtCsiXKQ3ZuUVOr_5armor7parsers4yaml5typesNtB5_13ParseMetadata10with_lines
FNDA:0,_RNvMs3_NtNtNtCsiXKQ3ZuUVOr_5armor7parsers4yaml5typesNtB5_13ParseMetadata3new
FNDA:0,_RNvMs4_NtNtNtCsiXKQ3ZuUVOr_5armor7parsers4yaml5typesNtB5_16ValidationResult10has_errors
FNDA:0,_RNvMs4_NtNtNtCsiXKQ3ZuUVOr_5armor7parsers4yaml5typesNtB5_16ValidationResult12has_warnings
FNDA:0,_RNvMs4_NtNtNtCsiXKQ3ZuUVOr_5armor7parsers4yaml5typesNtB5_16ValidationResult7failure
FNDA:0,_RNvMs4_NtNtNtCsiXKQ3ZuUVOr_5armor7parsers4yaml5typesNtB5_16ValidationResult7success
FNDA:0,_RNvMs4_NtNtNtCsiXKQ3ZuUVOr_5armor7parsers4yaml5typesNtB5_16ValidationResult8is_valid
FNDA:0,_RNvXs5_NtNtNtCsiXKQ3ZuUVOr_5armor7parsers4yaml5typesNtB5_16ValidationResultNtNtCs3BFokC4QLxY_4core7default7Default7default
FNDA:0,_RNvXs_NtNtNtCsiXKQ3ZuUVOr_5armor7parsers4yaml5typesNtB4_6StatusNtNtCs3BFokC4QLxY_4core3fmt7Display3fmt
FNDA:0,_RINvMs1_NtNtNtCsiXKQ3ZuUVOr_5armor7parsers4yaml5typesINtB6_11ParseResultpE3mapppEBc_
FNDA:0,_RINvMs3_NtNtNtCsiXKQ3ZuUVOr_5armor7parsers4yaml5typesNtB6_13ParseMetadata11with_sourcepEBc_
FNDA:0,_RNvMs0_NtNtNtCsiXKQ3ZuUVOr_5armor7parsers4yaml5typesINtB5_15OperationResultpE10is_successBb_
FNDA:0,_RNvMs0_NtNtNtCsiXKQ3ZuUVOr_5armor7parsers4yaml5typesINtB5_15OperationResultpE3newBb_
FNDA:0,_RNvMs0_NtNtNtCsiXKQ3ZuUVOr_5armor7parsers4yaml5typesINtB5_15OperationResultpE5errorBb_
FNDA:0,_RNvMs0_NtNtNtCsiXKQ3ZuUVOr_5armor7parsers4yaml5typesINtB5_15OperationResultpE7successBb_
FNDA:0,_RNvMs0_NtNtNtCsiXKQ3ZuUVOr_5armor7parsers4yaml5typesINtB5_15OperationResultpE8get_dataBb_
FNDA:0,_RNvMs0_NtNtNtCsiXKQ3ZuUVOr_5armor7parsers4yaml5typesINtB5_15OperationResultpE8is_errorBb_
FNDA:0,_RNvMs0_NtNtNtCsiXKQ3ZuUVOr_5armor7parsers4yaml5typesINtB5_15OperationResultpE9get_errorBb_
FNDA:0,_RNvMs1_NtNtNtCsiXKQ3ZuUVOr_5armor7parsers4yaml5typesINtB5_11ParseResultpE10is_failureBb_
FNDA:0,_RNvMs1_NtNtNtCsiXKQ3ZuUVOr_5armor7parsers4yaml5typesINtB5_11ParseResultpE10is_successBb_
FNDA:0,_RNvMs1_NtNtNtCsiXKQ3ZuUVOr_5armor7parsers4yaml5typesINtB5_11ParseResultpE5errorBb_
FNDA:0,_RNvMs1_NtNtNtCsiXKQ3ZuUVOr_5armor7parsers4yaml5typesINtB5_11ParseResultpE5valueBb_
FNDA:0,_RNvMs1_NtNtNtCsiXKQ3ZuUVOr_5armor7parsers4yaml5typesINtB5_11ParseResultpE6unwrapBb_
FNDA:0,_RNvMs1_NtNtNtCsiXKQ3ZuUVOr_5armor7parsers4yaml5typesINtB5_11ParseResultpE7failureBb_
FNDA:0,_RNvMs1_NtNtNtCsiXKQ3ZuUVOr_5armor7parsers4yaml5typesINtB5_11ParseResultpE8metadataBb_
FNDA:0,_RNvMs1_NtNtNtCsiXKQ3ZuUVOr_5armor7parsers4yaml5typesINtB5_11ParseResultpE9unwrap_orBb_
FNDA:0,_RNvXININtNtNtCsiXKQ3ZuUVOr_5armor7parsers4yaml5typess2_0pEINtB5_11ParseResultpEINtNtCs3BFokC4QLxY_4core7convert4FromINtNtB1k_6result6ResultpNtNtB7_5error10ParseErrorEE4fromBb_
FNF:33
FNH:0
DA:19,0
DA:20,0
DA:21,0
DA:24,0
DA:25,0
DA:26,0
DA:29,0
DA:30,0
DA:31,0
DA:33,0
DA:35,0
DA:38,0
DA:39,0
DA:40,0
DA:44,0
DA:45,0
DA:46,0
DA:47,0
DA:49,0
DA:75,0
DA:76,0
DA:77,0
DA:83,0
DA:84,0
DA:85,0
DA:86,0
DA:87,0
DA:88,0
DA:89,0
DA:95,0
DA:96,0
DA:97,0
DA:98,0
DA:99,0
DA:100,0
DA:101,0
DA:104,0
DA:105,0
DA:106,0
DA:109,0
DA:110,0
DA:111,0
DA:114,0
DA:115,0
DA:116,0
DA:119,0
DA:120,0
DA:121,0
DA:137,0
DA:138,0
DA:139,0
DA:140,0
DA:141,0
DA:142,0
DA:143,0
DA:146,0
DA:147,0
DA:148,0
DA:149,0
DA:150,0
DA:151,0
DA:152,0
DA:155,0
DA:156,0
DA:157,0
DA:160,0
DA:161,0
DA:162,0
DA:167,0
DA:168,0
DA:169,0
DA:172,0
DA:173,0
DA:174,0
DA:177,0
DA:178,0
DA:179,0
DA:184,0
DA:185,0
DA:186,0
DA:188,0
DA:191,0
DA:192,0
DA:193,0
DA:196,0
DA:197,0
DA:198,0
DA:200,0
DA:201,0
DA:202,0
DA:203,0
DA:204,0
DA:205,0
DA:206,0
DA:207,0
DA:208,0
DA:209,0
DA:210,0
DA:212,0
DA:216,0
DA:217,0
DA:218,0
DA:219,0
DA:221,0
DA:239,0
DA:240,0
DA:241,0
DA:244,0
DA:245,0
DA:246,0
DA:247,0
DA:250,0
DA:251,0
DA:252,0
DA:253,0
DA:256,0
DA:257,0
DA:258,0
DA:259,0
DA:275,0
DA:276,0
DA:277,0
DA:278,0
DA:279,0
DA:280,0
DA:281,0
DA:284,0
DA:285,0
DA:286,0
DA:287,0
DA:288,0
DA:289,0
DA:290,0
DA:293,0
DA:294,0
DA:295,0
DA:298,0
DA:299,0
DA:300,0
DA:303,0
DA:304,0
DA:305,0
DA:309,0
DA:310,0
DA:311,0
BRF:0
BRH:0
LF:145
LH:0
end_of_record